target datalayout = "e-m:e-p270:32:32-p271:32:32-p272:64:64-i64:64-i128:128-f80:128-n8:16:32:64-S128"
target triple = "x86_64-pc-linux-gnu"

%struct.sackd_node_t = type { ptr, ptr, i64, i16 }

@.str.7 = private unnamed_addr constant [12 x i8] c"sackd_mgr.c\00", align 1
@__func__._unpack_node = private unnamed_addr constant [13 x i8] c"_unpack_node\00", align 1

; Function Attrs: nounwind uwtable
define internal void @_destroy_sackd_node(ptr noundef %0) #0 {
  %2 = alloca ptr, align 8
  %3 = alloca ptr, align 8
  %4 = alloca i32, align 4
  store ptr %0, ptr %2, align 8
  call void @llvm.lifetime.start.p0(i64 8, ptr %3) #7
  %5 = load ptr, ptr %2, align 8
  store ptr %5, ptr %3, align 8
  %6 = load ptr, ptr %3, align 8
  %7 = icmp ne ptr %6, null
  br i1 %7, label %9, label %8

8:                                                ; preds = %1
  store i32 1, ptr %4, align 4
  br label %14

9:                                                ; preds = %1
  %10 = load ptr, ptr %3, align 8
  %11 = getelementptr inbounds nuw %struct.sackd_node_t, ptr %10, i32 0, i32 0
  call void @slurm_xfree(ptr noundef %11)
  %12 = load ptr, ptr %3, align 8
  %13 = getelementptr inbounds nuw %struct.sackd_node_t, ptr %12, i32 0, i32 1
  call void @slurm_xfree(ptr noundef %13)
  call void @slurm_xfree(ptr noundef %3)
  store i32 0, ptr %4, align 4
  br label %14

14:                                               ; preds = %9, %8
  call void @llvm.lifetime.end.p0(i64 8, ptr %3) #7
  %15 = load i32, ptr %4, align 4
  switch i32 %15, label %17 [
    i32 0, label %16
    i32 1, label %16
  ]

16:                                               ; preds = %14, %14
  ret void

17:                                               ; preds = %14
  unreachable
}

; Function Attrs: nounwind uwtable
define internal i32 @_unpack_node(ptr noundef %0, i16 noundef zeroext %1, ptr noundef %2) #0 {
  %4 = alloca i32, align 4
  %5 = alloca ptr, align 8
  %6 = alloca i16, align 2
  %7 = alloca ptr, align 8
  %8 = alloca i64, align 8
  %9 = alloca ptr, align 8
  %10 = alloca i32, align 4
  %11 = alloca i32, align 4
  %12 = alloca i32, align 4
  store ptr %0, ptr %5, align 8
  store i16 %1, ptr %6, align 2
  store ptr %2, ptr %7, align 8
  call void @llvm.lifetime.start.p0(i64 8, ptr %8) #7
  call void @llvm.lifetime.start.p0(i64 8, ptr %9) #7
  %13 = call ptr @slurm_xcalloc(i64 noundef 1, i64 noundef 32, i1 noundef zeroext true, i1 noundef zeroext false, ptr noundef @.str.7, i32 noundef 82, ptr noundef @__func__._unpack_node)
  store ptr %13, ptr %9, align 8
  br label %14

14:                                               ; preds = %3
  %15 = load ptr, ptr %9, align 8
  %16 = getelementptr inbounds nuw %struct.sackd_node_t, ptr %15, i32 0, i32 3
  %17 = load ptr, ptr %7, align 8
  %18 = call i32 @unpack16(ptr noundef %16, ptr noundef %17)
  %19 = icmp ne i32 %18, 0
  br i1 %19, label %20, label %21

20:                                               ; preds = %14
  br label %63

21:                                               ; preds = %14
  br label %22

22:                                               ; preds = %21
  br label %23

23:                                               ; preds = %22
  br label %24

24:                                               ; preds = %23
  %25 = load ptr, ptr %7, align 8
  %26 = call i32 @unpack64(ptr noundef %8, ptr noundef %25)
  %27 = icmp ne i32 %26, 0
  br i1 %27, label %28, label %29

28:                                               ; preds = %24
  br label %63

29:                                               ; preds = %24
  br label %30

30:                                               ; preds = %29
  br label %31

31:                                               ; preds = %30
  %32 = load i64, ptr %8, align 8
  %33 = load ptr, ptr %9, align 8
  %34 = getelementptr inbounds nuw %struct.sackd_node_t, ptr %33, i32 0, i32 2
  store i64 %32, ptr %34, align 8
  br label %35

35:                                               ; preds = %31
  call void @llvm.lifetime.start.p0(i64 4, ptr %10) #7
  %36 = load ptr, ptr %9, align 8
  %37 = getelementptr inbounds nuw %struct.sackd_node_t, ptr %36, i32 0, i32 0
  %38 = load ptr, ptr %7, align 8
  %39 = call i32 @unpackstr_xmalloc_chooser(ptr noundef %37, ptr noundef %10, ptr noundef %38)
  %40 = icmp ne i32 %39, 0
  br i1 %40, label %41, label %42

41:                                               ; preds = %35
  store i32 4, ptr %11, align 4
  br label %43

42:                                               ; preds = %35
  store i32 0, ptr %11, align 4
  br label %43

43:                                               ; preds = %41, %42
  call void @llvm.lifetime.end.p0(i64 4, ptr %10) #7
  %44 = load i32, ptr %11, align 4
  switch i32 %44, label %65 [
    i32 0, label %45
    i32 4, label %63
  ]

45:                                               ; preds = %43
  br label %46

46:                                               ; preds = %45
  br label %47

47:                                               ; preds = %46
  br label %48

48:                                               ; preds = %47
  call void @llvm.lifetime.start.p0(i64 4, ptr %12) #7
  %49 = load ptr, ptr %9, align 8
  %50 = getelementptr inbounds nuw %struct.sackd_node_t, ptr %49, i32 0, i32 1
  %51 = load ptr, ptr %7, align 8
  %52 = call i32 @unpackstr_xmalloc_chooser(ptr noundef %50, ptr noundef %12, ptr noundef %51)
  %53 = icmp ne i32 %52, 0
  br i1 %53, label %54, label %55

54:                                               ; preds = %48
  store i32 4, ptr %11, align 4
  br label %56

55:                                               ; preds = %48
  store i32 0, ptr %11, align 4
  br label %56

56:                                               ; preds = %54, %55
  call void @llvm.lifetime.end.p0(i64 4, ptr %12) #7
  %57 = load i32, ptr %11, align 4
  switch i32 %57, label %65 [
    i32 0, label %58
    i32 4, label %63
  ]

58:                                               ; preds = %56
  br label %59

59:                                               ; preds = %58
  br label %60

60:                                               ; preds = %59
  %61 = load ptr, ptr %9, align 8
  %62 = load ptr, ptr %5, align 8
  store ptr %61, ptr %62, align 8
  store i32 0, ptr %4, align 4
  store i32 1, ptr %11, align 4
  br label %65

63:                                               ; preds = %56, %43, %28, %20
  %64 = load ptr, ptr %9, align 8
  call void @_destroy_sackd_node(ptr noundef %64)
  store i32 -1, ptr %4, align 4
  store i32 1, ptr %11, align 4
  br label %65

65:                                               ; preds = %63, %60, %56, %43
  call void @llvm.lifetime.end.p0(i64 8, ptr %9) #7
  call void @llvm.lifetime.end.p0(i64 8, ptr %8) #7
  %66 = load i32, ptr %4, align 4
  ret i32 %66
}