; Function Attrs: nounwind uwtable
define internal range(i32 -1, 1) i32 @_unpack_node(ptr noundef writeonly captures(none) %0, i16 zeroext %1, ptr noundef %2) #0 {
  %4 = alloca ptr, align 8
  %5 = alloca i64, align 8
  %6 = alloca i32, align 4
  %7 = alloca i32, align 4
  call void @llvm.lifetime.start.p0(i64 8, ptr nonnull %5) #7
  %8 = tail call ptr @slurm_xcalloc(i64 noundef 1, i64 noundef 32, i1 noundef zeroext true, i1 noundef zeroext false, ptr noundef nonnull @.str.7, i32 noundef 82, ptr noundef nonnull @__func__._unpack_node) #7
  %9 = getelementptr inbounds nuw i8, ptr %8, i64 24
  %10 = tail call i32 @unpack16(ptr noundef nonnull %9, ptr noundef %2) #7
  %.not = icmp eq i32 %10, 0
  br i1 %.not, label %11, label %_destroy_sackd_node.exit

11:                                               ; preds = %3
  %12 = call i32 @unpack64(ptr noundef nonnull %5, ptr noundef %2) #7
  %.not14 = icmp eq i32 %12, 0
  br i1 %.not14, label %13, label %_destroy_sackd_node.exit

13:                                               ; preds = %11
  %14 = load i64, ptr %5, align 8
  %15 = getelementptr inbounds nuw i8, ptr %8, i64 16
  store i64 %14, ptr %15, align 8
  call void @llvm.lifetime.start.p0(i64 4, ptr nonnull %6) #7
  %16 = call i32 @unpackstr_xmalloc_chooser(ptr noundef nonnull %8, ptr noundef nonnull %6, ptr noundef %2) #7
  %.not15 = icmp eq i32 %16, 0
  call void @llvm.lifetime.end.p0(i64 4, ptr nonnull %6) #7
  br i1 %.not15, label %17, label %_destroy_sackd_node.exit

17:                                               ; preds = %13
  call void @llvm.lifetime.start.p0(i64 4, ptr nonnull %7) #7
  %18 = getelementptr inbounds nuw i8, ptr %8, i64 8
  %19 = call i32 @unpackstr_xmalloc_chooser(ptr noundef nonnull %18, ptr noundef nonnull %7, ptr noundef %2) #7
  %.not16 = icmp eq i32 %19, 0
  call void @llvm.lifetime.end.p0(i64 4, ptr nonnull %7) #7
  br i1 %.not16, label %20, label %_destroy_sackd_node.exit

20:                                               ; preds = %17
  store ptr %8, ptr %0, align 8
  br label %22

_destroy_sackd_node.exit:                         ; preds = %17, %13, %11, %3
  call void @llvm.lifetime.start.p0(i64 8, ptr nonnull %4) #7
  store ptr %8, ptr %4, align 8
  call void @slurm_xfree(ptr noundef nonnull %8) #7
  %21 = getelementptr inbounds nuw i8, ptr %8, i64 8
  call void @slurm_xfree(ptr noundef nonnull %21) #7
  call void @slurm_xfree(ptr noundef nonnull %4) #7
  call void @llvm.lifetime.end.p0(i64 8, ptr nonnull %4) #7
  br label %22

22:                                               ; preds = %_destroy_sackd_node.exit, %20
  %.013 = phi i32 [ -1, %_destroy_sackd_node.exit ], [ 0, %20 ]
  call void @llvm.lifetime.end.p0(i64 8, ptr nonnull %5) #7
  ret i32 %.013
}